target datalayout = "e-m:e-p270:32:32-p271:32:32-p272:64:64-i64:64-i128:128-f80:128-n8:16:32:64-S128"
target triple = "x86_64-pc-linux-gnu"

%struct.FunctionCallInfoBaseData = type { ptr, ptr, ptr, i32, i8, i16, [0 x %struct.NullableDatum] }
%struct.NullableDatum = type { i64, i8 }
%struct.anon = type { i32, [0 x i8] }
%struct.varattrib_1b = type { i8, [0 x i8] }
%struct.varattrib_1b_e = type { i8, i8, [0 x i8] }

; Function Attrs: nounwind uwtable
define dso_local i32 @bpchartruelen(ptr noundef %0, i32 noundef %1) #0 {
  %3 = alloca ptr, align 8
  %4 = alloca i32, align 4
  %5 = alloca i32, align 4
  store ptr %0, ptr %3, align 8
  store i32 %1, ptr %4, align 4
  call void @llvm.lifetime.start.p0(i64 4, ptr %5) #8
  %6 = load i32, ptr %4, align 4
  %7 = sub i32 %6, 1
  store i32 %7, ptr %5, align 4
  br label %8

8:                                                ; preds = %21, %2
  %9 = load i32, ptr %5, align 4
  %10 = icmp sge i32 %9, 0
  br i1 %10, label %11, label %24

11:                                               ; preds = %8
  %12 = load ptr, ptr %3, align 8
  %13 = load i32, ptr %5, align 4
  %14 = sext i32 %13 to i64
  %15 = getelementptr inbounds i8, ptr %12, i64 %14
  %16 = load i8, ptr %15, align 1
  %17 = sext i8 %16 to i32
  %18 = icmp ne i32 %17, 32
  br i1 %18, label %19, label %20

19:                                               ; preds = %11
  br label %24

20:                                               ; preds = %11
  br label %21

21:                                               ; preds = %20
  %22 = load i32, ptr %5, align 4
  %23 = add i32 %22, -1
  store i32 %23, ptr %5, align 4
  br label %8, !llvm.loop !12

24:                                               ; preds = %19, %8
  %25 = load i32, ptr %5, align 4
  %26 = add i32 %25, 1
  call void @llvm.lifetime.end.p0(i64 4, ptr %5) #8
  ret i32 %26
}

; Function Attrs: inlinehint nounwind uwtable
define internal i64 @BoolGetDatum(i1 noundef zeroext %0) #2 {
  %2 = alloca i8, align 1
  %3 = zext i1 %0 to i8
  store i8 %3, ptr %2, align 1
  %4 = load i8, ptr %2, align 1, !range !6, !noundef !7
  %5 = trunc i8 %4 to i1
  %6 = select i1 %5, i32 1, i32 0
  %7 = sext i32 %6 to i64
  ret i64 %7
}

; Function Attrs: inlinehint nounwind uwtable
define internal i32 @bcTruelen(ptr noundef %0) #2 {
  %2 = alloca ptr, align 8
  store ptr %0, ptr %2, align 8
  %3 = load ptr, ptr %2, align 8
  %4 = getelementptr inbounds nuw %struct.varattrib_1b, ptr %3, i32 0, i32 0
  %5 = load i8, ptr %4, align 1
  %6 = zext i8 %5 to i32
  %7 = and i32 %6, 1
  %8 = icmp eq i32 %7, 1
  br i1 %8, label %9, label %13

9:                                                ; preds = %1
  %10 = load ptr, ptr %2, align 8
  %11 = getelementptr inbounds nuw %struct.varattrib_1b, ptr %10, i32 0, i32 1
  %12 = getelementptr inbounds [0 x i8], ptr %11, i64 0, i64 0
  br label %17

13:                                               ; preds = %1
  %14 = load ptr, ptr %2, align 8
  %15 = getelementptr inbounds nuw %struct.anon, ptr %14, i32 0, i32 1
  %16 = getelementptr inbounds [0 x i8], ptr %15, i64 0, i64 0
  br label %17

17:                                               ; preds = %13, %9
  %18 = phi ptr [ %12, %9 ], [ %16, %13 ]
  %19 = load ptr, ptr %2, align 8
  %20 = getelementptr inbounds nuw %struct.varattrib_1b, ptr %19, i32 0, i32 0
  %21 = load i8, ptr %20, align 1
  %22 = zext i8 %21 to i32
  %23 = icmp eq i32 %22, 1
  br i1 %23, label %24, label %52

24:                                               ; preds = %17
  %25 = load ptr, ptr %2, align 8
  %26 = getelementptr inbounds nuw %struct.varattrib_1b_e, ptr %25, i32 0, i32 1
  %27 = load i8, ptr %26, align 1
  %28 = zext i8 %27 to i32
  %29 = icmp eq i32 %28, 1
  br i1 %29, label %30, label %31

30:                                               ; preds = %24
  br label %48

31:                                               ; preds = %24
  %32 = load ptr, ptr %2, align 8
  %33 = getelementptr inbounds nuw %struct.varattrib_1b_e, ptr %32, i32 0, i32 1
  %34 = load i8, ptr %33, align 1
  %35 = zext i8 %34 to i32
  %36 = and i32 %35, -2
  %37 = icmp eq i32 %36, 2
  br i1 %37, label %38, label %39

38:                                               ; preds = %31
  br label %46

39:                                               ; preds = %31
  %40 = load ptr, ptr %2, align 8
  %41 = getelementptr inbounds nuw %struct.varattrib_1b_e, ptr %40, i32 0, i32 1
  %42 = load i8, ptr %41, align 1
  %43 = zext i8 %42 to i32
  %44 = icmp eq i32 %43, 18
  %45 = select i1 %44, i64 16, i64 0
  br label %46

46:                                               ; preds = %39, %38
  %47 = phi i64 [ 8, %38 ], [ %45, %39 ]
  br label %48

48:                                               ; preds = %46, %30
  %49 = phi i64 [ 8, %30 ], [ %47, %46 ]
  %50 = add i64 2, %49
  %51 = sub i64 %50, 2
  br label %78

52:                                               ; preds = %17
  %53 = load ptr, ptr %2, align 8
  %54 = getelementptr inbounds nuw %struct.varattrib_1b, ptr %53, i32 0, i32 0
  %55 = load i8, ptr %54, align 1
  %56 = zext i8 %55 to i32
  %57 = and i32 %56, 1
  %58 = icmp eq i32 %57, 1
  br i1 %58, label %59, label %68

59:                                               ; preds = %52
  %60 = load ptr, ptr %2, align 8
  %61 = getelementptr inbounds nuw %struct.varattrib_1b, ptr %60, i32 0, i32 0
  %62 = load i8, ptr %61, align 1
  %63 = zext i8 %62 to i32
  %64 = ashr i32 %63, 1
  %65 = and i32 %64, 127
  %66 = sext i32 %65 to i64
  %67 = sub i64 %66, 1
  br label %76

68:                                               ; preds = %52
  %69 = load ptr, ptr %2, align 8
  %70 = getelementptr inbounds nuw %struct.anon, ptr %69, i32 0, i32 0
  %71 = load i32, ptr %70, align 4
  %72 = lshr i32 %71, 2
  %73 = and i32 %72, 1073741823
  %74 = sub i32 %73, 4
  %75 = zext i32 %74 to i64
  br label %76

76:                                               ; preds = %68, %59
  %77 = phi i64 [ %67, %59 ], [ %75, %68 ]
  br label %78

78:                                               ; preds = %76, %48
  %79 = phi i64 [ %51, %48 ], [ %77, %76 ]
  %80 = trunc i64 %79 to i32
  %81 = call i32 @bpchartruelen(ptr noundef %18, i32 noundef %80)
  ret i32 %81
}

; Function Attrs: inlinehint nounwind uwtable
define internal ptr @DatumGetPointer(i64 noundef %0) #2 {
  %2 = alloca i64, align 8
  store i64 %0, ptr %2, align 8
  %3 = load i64, ptr %2, align 8
  %4 = inttoptr i64 %3 to ptr
  ret ptr %4
}

; Function Attrs: nounwind uwtable
define dso_local i64 @bpcharle(ptr noundef %0) #0 {
  %2 = alloca ptr, align 8
  %3 = alloca ptr, align 8
  %4 = alloca ptr, align 8
  %5 = alloca i32, align 4
  %6 = alloca i32, align 4
  %7 = alloca i32, align 4
  store ptr %0, ptr %2, align 8
  call void @llvm.lifetime.start.p0(i64 8, ptr %3) #8
  %8 = load ptr, ptr %2, align 8
  %9 = getelementptr inbounds nuw %struct.FunctionCallInfoBaseData, ptr %8, i32 0, i32 6
  %10 = getelementptr inbounds [0 x %struct.NullableDatum], ptr %9, i64 0, i64 0
  %11 = getelementptr inbounds nuw %struct.NullableDatum, ptr %10, i32 0, i32 0
  %12 = load i64, ptr %11, align 8
  %13 = call ptr @DatumGetPointer(i64 noundef %12)
  %14 = call ptr @pg_detoast_datum_packed(ptr noundef %13)
  store ptr %14, ptr %3, align 8
  call void @llvm.lifetime.start.p0(i64 8, ptr %4) #8
  %15 = load ptr, ptr %2, align 8
  %16 = getelementptr inbounds nuw %struct.FunctionCallInfoBaseData, ptr %15, i32 0, i32 6
  %17 = getelementptr inbounds [0 x %struct.NullableDatum], ptr %16, i64 0, i64 1
  %18 = getelementptr inbounds nuw %struct.NullableDatum, ptr %17, i32 0, i32 0
  %19 = load i64, ptr %18, align 8
  %20 = call ptr @DatumGetPointer(i64 noundef %19)
  %21 = call ptr @pg_detoast_datum_packed(ptr noundef %20)
  store ptr %21, ptr %4, align 8
  call void @llvm.lifetime.start.p0(i64 4, ptr %5) #8
  call void @llvm.lifetime.start.p0(i64 4, ptr %6) #8
  call void @llvm.lifetime.start.p0(i64 4, ptr %7) #8
  %22 = load ptr, ptr %3, align 8
  %23 = call i32 @bcTruelen(ptr noundef %22)
  store i32 %23, ptr %5, align 4
  %24 = load ptr, ptr %4, align 8
  %25 = call i32 @bcTruelen(ptr noundef %24)
  store i32 %25, ptr %6, align 4
  %26 = load ptr, ptr %3, align 8
  %27 = getelementptr inbounds nuw %struct.varattrib_1b, ptr %26, i32 0, i32 0
  %28 = load i8, ptr %27, align 1
  %29 = zext i8 %28 to i32
  %30 = and i32 %29, 1
  %31 = icmp eq i32 %30, 1
  br i1 %31, label %32, label %36

32:                                               ; preds = %1
  %33 = load ptr, ptr %3, align 8
  %34 = getelementptr inbounds nuw %struct.varattrib_1b, ptr %33, i32 0, i32 1
  %35 = getelementptr inbounds [0 x i8], ptr %34, i64 0, i64 0
  br label %40

36:                                               ; preds = %1
  %37 = load ptr, ptr %3, align 8
  %38 = getelementptr inbounds nuw %struct.anon, ptr %37, i32 0, i32 1
  %39 = getelementptr inbounds [0 x i8], ptr %38, i64 0, i64 0
  br label %40

40:                                               ; preds = %36, %32
  %41 = phi ptr [ %35, %32 ], [ %39, %36 ]
  %42 = load i32, ptr %5, align 4
  %43 = load ptr, ptr %4, align 8
  %44 = getelementptr inbounds nuw %struct.varattrib_1b, ptr %43, i32 0, i32 0
  %45 = load i8, ptr %44, align 1
  %46 = zext i8 %45 to i32
  %47 = and i32 %46, 1
  %48 = icmp eq i32 %47, 1
  br i1 %48, label %49, label %53

49:                                               ; preds = %40
  %50 = load ptr, ptr %4, align 8
  %51 = getelementptr inbounds nuw %struct.varattrib_1b, ptr %50, i32 0, i32 1
  %52 = getelementptr inbounds [0 x i8], ptr %51, i64 0, i64 0
  br label %57

53:                                               ; preds = %40
  %54 = load ptr, ptr %4, align 8
  %55 = getelementptr inbounds nuw %struct.anon, ptr %54, i32 0, i32 1
  %56 = getelementptr inbounds [0 x i8], ptr %55, i64 0, i64 0
  br label %57

57:                                               ; preds = %53, %49
  %58 = phi ptr [ %52, %49 ], [ %56, %53 ]
  %59 = load i32, ptr %6, align 4
  %60 = load ptr, ptr %2, align 8
  %61 = getelementptr inbounds nuw %struct.FunctionCallInfoBaseData, ptr %60, i32 0, i32 3
  %62 = load i32, ptr %61, align 8
  %63 = call i32 @varstr_cmp(ptr noundef %41, i32 noundef %42, ptr noundef %58, i32 noundef %59, i32 noundef %62)
  store i32 %63, ptr %7, align 4
  br label %64

64:                                               ; preds = %57
  %65 = load ptr, ptr %3, align 8
  %66 = load ptr, ptr %2, align 8
  %67 = getelementptr inbounds nuw %struct.FunctionCallInfoBaseData, ptr %66, i32 0, i32 6
  %68 = getelementptr inbounds [0 x %struct.NullableDatum], ptr %67, i64 0, i64 0
  %69 = getelementptr inbounds nuw %struct.NullableDatum, ptr %68, i32 0, i32 0
  %70 = load i64, ptr %69, align 8
  %71 = call ptr @DatumGetPointer(i64 noundef %70)
  %72 = icmp ne ptr %65, %71
  br i1 %72, label %73, label %75

73:                                               ; preds = %64
  %74 = load ptr, ptr %3, align 8
  call void @pfree(ptr noundef %74)
  br label %75

75:                                               ; preds = %73, %64
  br label %76

76:                                               ; preds = %75
  br label %77

77:                                               ; preds = %76
  br label %78

78:                                               ; preds = %77
  %79 = load ptr, ptr %4, align 8
  %80 = load ptr, ptr %2, align 8
  %81 = getelementptr inbounds nuw %struct.FunctionCallInfoBaseData, ptr %80, i32 0, i32 6
  %82 = getelementptr inbounds [0 x %struct.NullableDatum], ptr %81, i64 0, i64 1
  %83 = getelementptr inbounds nuw %struct.NullableDatum, ptr %82, i32 0, i32 0
  %84 = load i64, ptr %83, align 8
  %85 = call ptr @DatumGetPointer(i64 noundef %84)
  %86 = icmp ne ptr %79, %85
  br i1 %86, label %87, label %89

87:                                               ; preds = %78
  %88 = load ptr, ptr %4, align 8
  call void @pfree(ptr noundef %88)
  br label %89

89:                                               ; preds = %87, %78
  br label %90

90:                                               ; preds = %89
  br label %91

91:                                               ; preds = %90
  %92 = load i32, ptr %7, align 4
  %93 = icmp sle i32 %92, 0
  %94 = call i64 @BoolGetDatum(i1 noundef zeroext %93)
  call void @llvm.lifetime.end.p0(i64 4, ptr %7) #8
  call void @llvm.lifetime.end.p0(i64 4, ptr %6) #8
  call void @llvm.lifetime.end.p0(i64 4, ptr %5) #8
  call void @llvm.lifetime.end.p0(i64 8, ptr %4) #8
  call void @llvm.lifetime.end.p0(i64 8, ptr %3) #8
  ret i64 %94
}